(lp1
S'/afs/mpa/common/pdsoft/i386_linux22/appl/obsolete/python-2.7.1-amd64/lib/python2.7/site-packages/ipython-0.12-py2.7.egg'
p2
aS'/afs/mpa/common/pdsoft/i386_linux22/appl/obsolete/python-2.7.1-amd64/bin'
p3
aS'/afs/mpa/project/vertex/software/@sys/lib/python2.7/site-packages/readline-6.2.1-py2.7-linux-x86_64.egg'
p4
aS'/afs/mpa/project/vertex/software/@sys/lib/python2.7/site-packages/pygraphviz-1.1-py2.7-linux-x86_64.egg'
p5
aS'/afs/mpa/project/vertex/software/@sys/lib/python2.7/site-packages/pyparsing-1.5.6-py2.7.egg'
p6
aS'/afs/mpa/project/vertex/software/@sys/lib/python2.7/site-packages/pydot-1.0.28-py2.7.egg'
p7
aS'/afs/mpa/project/vertex/software/@sys/lib/python2.7/site-packages/python_graph_core-1.8.2-py2.7.egg'
p8
aS'/afs/mpa/project/vertex/software/@sys/lib/python2.7/site-packages/python_graph_dot-1.8.2-py2.7.egg'
p9
aS'/afs/mpa/project/vertex/software/noarch/lib/python2.7/site-packages/nose-1.1.2-py2.7.egg'
p10
aS'/afs/mpa/common/pdsoft/i386_linux22/appl/python-2.7.1-amd64/lib/python2.7/site-packages/pexpect-2.4-py2.7.egg'
p11
aS'/afs/mpa/project/vertex/software/noarch/lib/python2.7/site-packages/sympy-0.7.1-py2.7.egg'
p12
aS'/afs/mpa/project/vertex/software/@sys/lib/python2.7/site-packages/nibabel-1.3.0-py2.7.egg'
p13
aS'/afs/mpa/project/vertex/software/@sys/lib/python2.7/site-packages/ipython-1.0.0-py2.7.egg'
p14
aS'/afs/mpa/project/vertex/software/noarch/lib/python2.7/site-packages/mpmath-0.17-py2.7.egg'
p15
aS'/afs/mpa/project/vertex/software/@sys/lib/python2.7/site-packages/gmpy-1.17-py2.7-linux-x86_64.egg'
p16
aS'/afs/mpa/common/pdsoft/appl/pyapps64/lib/python2.7/site-packages/setuptools-0.6c11-py2.7.egg'
p17
aS'/afs/mpa/common/pdsoft/appl/pyapps64/lib/python2.7/site-packages/paramiko-1.7.6-py2.7.egg'
p18
aS'/afs/mpa/common/pdsoft/appl/pyapps64/lib/python2.7/site-packages/pycrypto-2.3-py2.7-linux-x86_64.egg'
p19
aS'/afs/mpa/common/pdsoft/appl/pyapps64/lib/python2.7/site-packages/numexpr-1.4.2-py2.7-linux-x86_64.egg'
p20
aS'/afs/mpa/common/pdsoft/appl/pyapps64/lib/python2.7/site-packages/VTK-5.6.1-py2.7.egg'
p21
aS'/afs/mpa/common/pdsoft/appl/pyapps64/lib/python2.7/site-packages/TraitsGUI-3.6.0-py2.7.egg'
p22
aS'/afs/mpa/common/pdsoft/appl/pyapps64/lib/python2.7/site-packages/EnthoughtBase-3.1.0-py2.7.egg'
p23
aS'/afs/mpa/common/pdsoft/appl/pyapps64/lib/python2.7/site-packages/configobj-4.7.2-py2.7.egg'
p24
aS'/afs/mpa/common/pdsoft/appl/pyapps64/lib/python2.7/site-packages/TraitsBackendQt-3.6.1-py2.7.egg'
p25
aS'/afs/mpa/common/pdsoft/appl/pyapps64/lib/python2.7/site-packages/yt-2.4dev-py2.7-linux-x86_64.egg'
p26
aS'/afs/mpa/common/pdsoft/appl/pyapps64/lib/python2.7/site-packages/tornado-2.1.1-py2.7.egg'
p27
aS'/afs/mpa/common/pdsoft/appl/pyapps64/lib/python2.7/site-packages/mayavi-4.0.0-py2.7-linux-x86_64.egg'
p28
aS'/afs/mpa/common/pdsoft/appl/pyapps64/lib/python2.7/site-packages/traitsui-4.1.0-py2.7.egg'
p29
aS'/afs/mpa/common/pdsoft/appl/pyapps64/lib/python2.7/site-packages/traits-4.0.0-py2.7-linux-x86_64.egg'
p30
aS'/afs/mpa/common/pdsoft/appl/pyapps64/lib/python2.7/site-packages/apptools-4.0.0-py2.7.egg'
p31
aS'/afs/mpa/common/pdsoft/appl/pyapps64/lib/python2.7/site-packages/pyface-4.1.0-py2.7.egg'
p32
aS'/afs/mpa/common/pdsoft/appl/pyapps64/lib/python2.7/site-packages/mercurial-2.2.1-py2.7-linux-x86_64.egg'
p33
aS'/afs/mpa/common/pdsoft/appl/pyapps64/lib/python2.7/site-packages/pIDLy-0.2.4-py2.7.egg'
p34
aS'/afs/mpa/common/pdsoft/appl/pyapps64/lib/python2.7/site-packages/asciitable-0.8.0-py2.7.egg'
p35
aS'/afs/mpa/common/pdsoft/appl/pyapps64/lib/python2.7/site-packages/Sphinx-1.1.3-py2.7.egg'
p36
aS'/afs/mpa/common/pdsoft/appl/pyapps64/lib/python2.7/site-packages/docutils-0.9-py2.7.egg'
p37
aS'/afs/mpa/common/pdsoft/appl/pyapps64/lib/python2.7/site-packages/Jinja2-2.6-py2.7.egg'
p38
aS'/afs/mpa/common/pdsoft/appl/pyapps64/lib/python2.7/site-packages/spyder-2.1.10-py2.7.egg'
p39
aS'/afs/mpa/common/pdsoft/appl/pyapps64/lib/python2.7/site-packages/pip-1.1-py2.7.egg'
p40
aS'/afs/mpa/common/pdsoft/appl/pyapps64/lib/python2.7/site-packages/nose-1.1.2-py2.7.egg'
p41
aS'/afs/mpa/common/pdsoft/appl/pyapps64/lib/python2.7/site-packages/distribute-0.6.30-py2.7.egg'
p42
aS'/afs/mpa/common/pdsoft/appl/pyapps64/lib/python2.7/site-packages/Cython-0.18-py2.7-linux-x86_64.egg'
p43
aS'/afs/mpa/common/pdsoft/appl/pyapps64/lib/python2.7/site-packages/pyaml-13.01.0-py2.7.egg'
p44
aS'/afs/mpa/common/pdsoft/appl/pyapps64/lib/python2.7/site-packages/PyYAML-3.10-py2.7-linux-x86_64.egg'
p45
aS'/afs/mpa/project/vertex/software/noarch/lib/python2.7/site-packages'
p46
aS'/afs/mpa/project/vertex/software/@sys/lib/python2.7/site-packages'
p47
aS'/afs/mpa/common/pdsoft/appl/pyapps64/lib/python27.zip'
p48
aS'/afs/mpa/common/pdsoft/appl/pyapps64/lib/python2.7'
p49
aS'/afs/mpa/common/pdsoft/appl/pyapps64/lib/python2.7/plat-linux2'
p50
aS'/afs/mpa/common/pdsoft/appl/pyapps64/lib/python2.7/lib-tk'
p51
aS'/afs/mpa/common/pdsoft/appl/pyapps64/lib/python2.7/lib-old'
p52
aS'/afs/mpa/common/pdsoft/appl/pyapps64/lib/python2.7/lib-dynload'
p53
aS'/afs/mpa/common/pdsoft/appl/pyapps64/lib/python2.7/site-packages'
p54
aS'/afs/mpa/common/pdsoft/appl/pyapps64/lib/python2.7/site-packages/PIL'
p55
aS'/usr/common/pdsoft/appl/gnome/lib/python2.7/site-packages'
p56
aS'/afs/mpa/common/pdsoft/appl/pyapps64/lib/python2.7/site-packages/gtk-2.0'
p57
aS'/afs/mpa/common/pdsoft/appl/pyapps64/lib/python2.7/site-packages/setuptools-0.6c11-py2.7.egg-info'
p58
aS'/afs/mpa/common/pdsoft/appl/pyapps64/lib/python2.7/site-packages/wx-2.8-gtk2-unicode'
p59
aS'/afs/mpa/common/pdsoft/i386_linux22/appl/obsolete/python-2.7.1-amd64/lib/python2.7/site-packages/ipython-0.12-py2.7.egg/IPython/extensions'
p60
aS''
aS'/afs/mpa/home/georgsto/.local/lib/python2.7/site-packages/pip-7.1.0-py2.7.egg'
p61
aS'/afs/mpa/home/georgsto/.local/lib/python2.7/site-packages/Cython-0.22.1-py2.7-linux-x86_64.egg'
p62
aS'/afs/mpa/home/georgsto/.local/lib/python2.7/site-packages/numexpr-2.4.3-py2.7-linux-x86_64.egg'
p63
aS'/afs/mpa/home/georgsto/.local/lib/python2.7/site-packages/matplotlib-1.5.dev1-py2.7-linux-x86_64.egg'
p64
aS'/afs/mpa/home/georgsto/.local/lib/python2.7/site-packages/pyzmq-14.7.0-py2.7-linux-x86_64.egg'
p65
aS'/afs/mpa/home/georgsto/python'
p66
aS'/afs/mpa/home/georgsto/.local/lib/python2.7/site-packages'
p67
aS'/afs/mpa/home/georgsto/.local/lib/python3.4/site-packages'
p68
aS'/afs/mpa/home/georgsto/.local/lib/python2.7/site-packages/setuptools-18.2.dev0-py2.7.egg'
p69
a.